; ModuleID = 'bench/linux/original/intel_pxp_huc.ll'
source_filename = "bench/linux/original/intel_pxp_huc.ll"
target datalayout = "e-m:e-p270:32:32-p271:32:32-p272:64:64-i64:64-i128:128-f80:128-n8:16:32:64-S128"
target triple = "x86_64-unknown-linux-gnu"

%struct.pxp43_start_huc_auth_in = type { %struct.pxp_cmd_header, i64 }
%struct.pxp_cmd_header = type { i32, i32, %union.anon, i32 }
%union.anon = type { i32 }
%struct.pxp43_huc_auth_out = type { %struct.pxp_cmd_header }

@.str = private unnamed_addr constant [69 x i8] c"[drm] *ERROR* Failed to send HuC load and auth command to GSC [%d]!\0A\00", align 1
@.str.1 = private unnamed_addr constant [53 x i8] c"[drm] *ERROR* HuC load failed with GSC error = 0x%x\0A\00", align 1

; Function Attrs: fn_ret_thunk_extern nounwind null_pointer_is_valid
define dso_local i32 @intel_pxp_huc_load_and_auth(ptr noundef %0) local_unnamed_addr #0 align 16 {
  %2 = alloca %struct.pxp43_start_huc_auth_in, align 4
  %3 = alloca %struct.pxp43_huc_auth_out, align 1
  call void @llvm.lifetime.start.p0(i64 24, ptr nonnull %2) #5
  call void @llvm.lifetime.start.p0(i64 16, ptr nonnull %3) #5
  call void @llvm.memset.p0.i64(ptr noundef nonnull align 1 dereferenceable(16) %3, i8 0, i64 16, i1 false)
  %4 = icmp eq ptr %0, null
  br i1 %4, label %39, label %5

5:                                                ; preds = %1
  %6 = getelementptr inbounds i8, ptr %0, i64 64
  %7 = load ptr, ptr %6, align 8
  %8 = icmp eq ptr %7, null
  br i1 %8, label %39, label %9

9:                                                ; preds = %5
  %10 = load ptr, ptr %0, align 8
  %11 = getelementptr inbounds i8, ptr %10, i64 2464
  %12 = load ptr, ptr %11, align 8
  %13 = tail call i64 @__i915_gem_object_get_dma_address(ptr noundef %12, i64 noundef 0) #5
  store i32 262147, ptr %2, align 4
  %14 = getelementptr inbounds i8, ptr %2, i64 4
  store i32 58, ptr %14, align 4
  %15 = getelementptr inbounds i8, ptr %2, i64 8
  store i32 0, ptr %15, align 4
  %16 = getelementptr inbounds i8, ptr %2, i64 12
  store i32 8, ptr %16, align 4
  %17 = getelementptr inbounds i8, ptr %2, i64 16
  store i64 %13, ptr %17, align 4
  %18 = call i32 @intel_pxp_tee_stream_message(ptr noundef nonnull %0, i8 noundef zeroext 0, i32 noundef 0, ptr noundef nonnull %2, i64 noundef 24, ptr noundef nonnull %3, i64 noundef 16) #5
  %19 = icmp slt i32 %18, 0
  br i1 %19, label %20, label %28

20:                                               ; preds = %9
  %21 = load ptr, ptr %10, align 8
  %22 = icmp eq ptr %21, null
  br i1 %22, label %26, label %23

23:                                               ; preds = %20
  %24 = getelementptr inbounds i8, ptr %21, i64 8
  %25 = load ptr, ptr %24, align 8
  br label %26

26:                                               ; preds = %23, %20
  %27 = phi ptr [ %25, %23 ], [ null, %20 ]
  call void (ptr, ptr, ...) @_dev_err(ptr noundef %27, ptr noundef nonnull @.str, i32 noundef %18) #6
  br label %39

28:                                               ; preds = %9
  %29 = getelementptr inbounds i8, ptr %3, i64 8
  %30 = load i32, ptr %29, align 1
  switch i32 %30, label %31 [
    i32 16403, label %39
    i32 0, label %39
  ]

31:                                               ; preds = %28
  %32 = load ptr, ptr %10, align 8
  %33 = icmp eq ptr %32, null
  br i1 %33, label %37, label %34

34:                                               ; preds = %31
  %35 = getelementptr inbounds i8, ptr %32, i64 8
  %36 = load ptr, ptr %35, align 8
  br label %37

37:                                               ; preds = %34, %31
  %38 = phi ptr [ %36, %34 ], [ null, %31 ]
  call void (ptr, ptr, ...) @_dev_err(ptr noundef %38, ptr noundef nonnull @.str.1, i32 noundef %30) #6
  br label %39

39:                                               ; preds = %37, %28, %28, %26, %5, %1
  %40 = phi i32 [ %18, %26 ], [ -71, %37 ], [ -19, %5 ], [ -19, %1 ], [ 0, %28 ], [ 0, %28 ]
  call void @llvm.lifetime.end.p0(i64 16, ptr nonnull %3) #5
  call void @llvm.lifetime.end.p0(i64 24, ptr nonnull %2) #5
  ret i32 %40
}

; Function Attrs: mustprogress nocallback nofree nosync nounwind willreturn memory(argmem: readwrite)
declare void @llvm.lifetime.start.p0(i64 immarg, ptr nocapture) #1

; Function Attrs: mustprogress nocallback nofree nounwind willreturn memory(argmem: write)
declare void @llvm.memset.p0.i64(ptr nocapture writeonly, i8, i64, i1 immarg) #2

; Function Attrs: null_pointer_is_valid
declare dso_local i64 @__i915_gem_object_get_dma_address(ptr noundef, i64 noundef) local_unnamed_addr #3

; Function Attrs: null_pointer_is_valid
declare dso_local i32 @intel_pxp_tee_stream_message(ptr noundef, i8 noundef zeroext, i32 noundef, ptr noundef, i64 noundef, ptr noundef, i64 noundef) local_unnamed_addr #3

; Function Attrs: cold null_pointer_is_valid
declare dso_local void @_dev_err(ptr noundef, ptr noundef, ...) local_unnamed_addr #4

; Function Attrs: mustprogress nocallback nofree nosync nounwind willreturn memory(argmem: readwrite)
declare void @llvm.lifetime.end.p0(i64 immarg, ptr nocapture) #1


!llvm.module.flags = !{!0, !1, !2, !3, !4}

!0 = !{i32 1, !"wchar_size", i32 2}
!1 = !{i32 8, !"cf-protection-branch", i32 1}
!2 = !{i32 4, !"function_return_thunk_extern", i32 1}
!3 = !{i32 4, !"indirect_branch_cs_prefix", i32 1}
!4 = !{i32 4, !"SkipRaxSetup", i32 1}
